target datalayout = "e-m:e-p270:32:32-p271:32:32-p272:64:64-i64:64-i128:128-f80:128-n8:16:32:64-S128"
target triple = "x86_64-pc-linux-gnu"

%struct.anon = type { i32, [0 x i8] }

; Function Attrs: nounwind uwtable
define dso_local void @range_set_contain_empty(ptr noundef %0) #0 {
  %2 = alloca ptr, align 8
  %3 = alloca ptr, align 8
  store ptr %0, ptr %2, align 8
  call void @llvm.lifetime.start.p0(i64 8, ptr %3) #10
  %4 = load ptr, ptr %2, align 8
  %5 = load ptr, ptr %2, align 8
  %6 = getelementptr inbounds nuw %struct.anon, ptr %5, i32 0, i32 0
  %7 = load i32, ptr %6, align 4
  %8 = lshr i32 %7, 2
  %9 = and i32 %8, 1073741823
  %10 = zext i32 %9 to i64
  %11 = getelementptr inbounds nuw i8, ptr %4, i64 %10
  %12 = getelementptr inbounds i8, ptr %11, i64 -1
  store ptr %12, ptr %3, align 8
  %13 = load ptr, ptr %3, align 8
  %14 = load i8, ptr %13, align 1
  %15 = sext i8 %14 to i32
  %16 = or i32 %15, 128
  %17 = trunc i32 %16 to i8
  store i8 %17, ptr %13, align 1
  call void @llvm.lifetime.end.p0(i64 8, ptr %3) #10
  ret void
}